; Function Attrs: mustprogress nofree norecurse nosync nounwind willreturn memory(argmem: read) uwtable
define hidden noundef i32 @_ZN10duckdb_re216RepetitionWalker8PreVisitEPNS_6RegexpEiPb(ptr nonnull readnone align 8 captures(none) %0, ptr noundef readonly captures(none) %1, i32 noundef %2, ptr readnone captures(none) %3) unnamed_addr #13 align 2 {
  %5 = load i8, ptr %1, align 8, !tbaa !26
  %6 = icmp eq i8 %5, 10
  br i1 %6, label %7, label %18

7:                                                ; preds = %4
  %8 = getelementptr inbounds nuw i8, ptr %1, i64 24
  %9 = load i32, ptr %8, align 8, !tbaa !27
  %10 = icmp slt i32 %9, 0
  br i1 %10, label %11, label %14

11:                                               ; preds = %7
  %12 = getelementptr inbounds nuw i8, ptr %1, i64 28
  %13 = load i32, ptr %12, align 4, !tbaa !27
  br label %14

14:                                               ; preds = %11, %7
  %.0 = phi i32 [ %13, %11 ], [ %9, %7 ]
  %15 = icmp sgt i32 %.0, 0
  br i1 %15, label %16, label %18

16:                                               ; preds = %14
  %17 = sdiv i32 %2, %.0
  br label %18

18:                                               ; preds = %14, %16, %4
  %.08 = phi i32 [ %2, %4 ], [ %17, %16 ], [ %2, %14 ]
  ret i32 %.08
}